target datalayout = "e-m:e-p270:32:32-p271:32:32-p272:64:64-i64:64-i128:128-f80:128-n8:16:32:64-S128"
target triple = "x86_64-pc-linux-gnu"

%union.cmsInterpFunction = type { ptr }
%struct._cms_interp_struc = type { ptr, i32, i32, i32, [15 x i32], [15 x i32], [15 x i32], ptr, %union.cmsInterpFunction }

; Function Attrs: nounwind uwtable
define internal float @fclamp(float noundef %0) #0 {
  %2 = alloca float, align 4
  store float %0, ptr %2, align 4
  %3 = load float, ptr %2, align 4
  %4 = fcmp olt float %3, 0x3E112E0BE0000000
  br i1 %4, label %8, label %5

5:                                                ; preds = %1
  %6 = load float, ptr %2, align 4
  %7 = call i1 @llvm.is.fpclass.f32(float %6, i32 3)
  br i1 %7, label %8, label %9

8:                                                ; preds = %5, %1
  br label %17

9:                                                ; preds = %5
  %10 = load float, ptr %2, align 4
  %11 = fcmp ogt float %10, 1.000000e+00
  br i1 %11, label %12, label %13

12:                                               ; preds = %9
  br label %15

13:                                               ; preds = %9
  %14 = load float, ptr %2, align 4
  br label %15

15:                                               ; preds = %13, %12
  %16 = phi float [ 1.000000e+00, %12 ], [ %14, %13 ]
  br label %17

17:                                               ; preds = %15, %8
  %18 = phi float [ 0.000000e+00, %8 ], [ %16, %15 ]
  ret float %18
}

; Function Attrs: nounwind uwtable
define internal void @Eval1InputFloat(ptr noundef %0, ptr noundef %1, ptr noundef %2) #0 {
  %4 = alloca ptr, align 8
  %5 = alloca ptr, align 8
  %6 = alloca ptr, align 8
  %7 = alloca float, align 4
  %8 = alloca float, align 4
  %9 = alloca float, align 4
  %10 = alloca float, align 4
  %11 = alloca i32, align 4
  %12 = alloca i32, align 4
  %13 = alloca i32, align 4
  %14 = alloca ptr, align 8
  %15 = alloca i32, align 4
  store ptr %0, ptr %4, align 8
  store ptr %1, ptr %5, align 8
  store ptr %2, ptr %6, align 8
  %16 = load ptr, ptr %6, align 8
  %17 = getelementptr inbounds %struct._cms_interp_struc, ptr %16, i32 0, i32 7
  %18 = load ptr, ptr %17, align 8
  store ptr %18, ptr %14, align 8
  %19 = load ptr, ptr %4, align 8
  %20 = getelementptr inbounds float, ptr %19, i64 0
  %21 = load float, ptr %20, align 4
  %22 = call float @fclamp(float noundef %21)
  store float %22, ptr %9, align 4
  %23 = load float, ptr %9, align 4
  %24 = fpext float %23 to double
  %25 = fcmp oeq double %24, 1.000000e+00
  br i1 %25, label %32, label %26

26:                                               ; preds = %3
  %27 = load ptr, ptr %6, align 8
  %28 = getelementptr inbounds %struct._cms_interp_struc, ptr %27, i32 0, i32 5
  %29 = getelementptr inbounds [15 x i32], ptr %28, i64 0, i64 0
  %30 = load i32, ptr %29, align 8
  %31 = icmp eq i32 %30, 0
  br i1 %31, label %32, label %64

32:                                               ; preds = %26, %3
  %33 = load ptr, ptr %6, align 8
  %34 = getelementptr inbounds %struct._cms_interp_struc, ptr %33, i32 0, i32 5
  %35 = getelementptr inbounds [15 x i32], ptr %34, i64 0, i64 0
  %36 = load i32, ptr %35, align 8
  %37 = load ptr, ptr %6, align 8
  %38 = getelementptr inbounds %struct._cms_interp_struc, ptr %37, i32 0, i32 6
  %39 = getelementptr inbounds [15 x i32], ptr %38, i64 0, i64 0
  %40 = load i32, ptr %39, align 4
  %41 = mul i32 %36, %40
  store i32 %41, ptr %15, align 4
  store i32 0, ptr %13, align 4
  br label %42

42:                                               ; preds = %60, %32
  %43 = load i32, ptr %13, align 4
  %44 = load ptr, ptr %6, align 8
  %45 = getelementptr inbounds %struct._cms_interp_struc, ptr %44, i32 0, i32 3
  %46 = load i32, ptr %45, align 8
  %47 = icmp ult i32 %43, %46
  br i1 %47, label %48, label %63

48:                                               ; preds = %42
  %49 = load ptr, ptr %14, align 8
  %50 = load i32, ptr %15, align 4
  %51 = load i32, ptr %13, align 4
  %52 = add i32 %50, %51
  %53 = zext i32 %52 to i64
  %54 = getelementptr inbounds float, ptr %49, i64 %53
  %55 = load float, ptr %54, align 4
  %56 = load ptr, ptr %5, align 8
  %57 = load i32, ptr %13, align 4
  %58 = zext i32 %57 to i64
  %59 = getelementptr inbounds float, ptr %56, i64 %58
  store float %55, ptr %59, align 4
  br label %60

60:                                               ; preds = %48
  %61 = load i32, ptr %13, align 4
  %62 = add i32 %61, 1
  store i32 %62, ptr %13, align 4
  br label %42, !llvm.loop !10

63:                                               ; preds = %42
  br label %131

64:                                               ; preds = %26
  %65 = load ptr, ptr %6, align 8
  %66 = getelementptr inbounds %struct._cms_interp_struc, ptr %65, i32 0, i32 5
  %67 = getelementptr inbounds [15 x i32], ptr %66, i64 0, i64 0
  %68 = load i32, ptr %67, align 8
  %69 = uitofp i32 %68 to float
  %70 = load float, ptr %9, align 4
  %71 = fmul float %70, %69
  store float %71, ptr %9, align 4
  %72 = load float, ptr %9, align 4
  %73 = fpext float %72 to double
  %74 = call double @llvm.floor.f64(double %73)
  %75 = fptosi double %74 to i32
  store i32 %75, ptr %11, align 4
  %76 = load float, ptr %9, align 4
  %77 = fpext float %76 to double
  %78 = call double @llvm.ceil.f64(double %77)
  %79 = fptosi double %78 to i32
  store i32 %79, ptr %12, align 4
  %80 = load float, ptr %9, align 4
  %81 = load i32, ptr %11, align 4
  %82 = sitofp i32 %81 to float
  %83 = fsub float %80, %82
  store float %83, ptr %10, align 4
  %84 = load ptr, ptr %6, align 8
  %85 = getelementptr inbounds %struct._cms_interp_struc, ptr %84, i32 0, i32 6
  %86 = getelementptr inbounds [15 x i32], ptr %85, i64 0, i64 0
  %87 = load i32, ptr %86, align 4
  %88 = load i32, ptr %11, align 4
  %89 = mul i32 %88, %87
  store i32 %89, ptr %11, align 4
  %90 = load ptr, ptr %6, align 8
  %91 = getelementptr inbounds %struct._cms_interp_struc, ptr %90, i32 0, i32 6
  %92 = getelementptr inbounds [15 x i32], ptr %91, i64 0, i64 0
  %93 = load i32, ptr %92, align 4
  %94 = load i32, ptr %12, align 4
  %95 = mul i32 %94, %93
  store i32 %95, ptr %12, align 4
  store i32 0, ptr %13, align 4
  br label %96

96:                                               ; preds = %127, %64
  %97 = load i32, ptr %13, align 4
  %98 = load ptr, ptr %6, align 8
  %99 = getelementptr inbounds %struct._cms_interp_struc, ptr %98, i32 0, i32 3
  %100 = load i32, ptr %99, align 8
  %101 = icmp ult i32 %97, %100
  br i1 %101, label %102, label %130

102:                                              ; preds = %96
  %103 = load ptr, ptr %14, align 8
  %104 = load i32, ptr %11, align 4
  %105 = load i32, ptr %13, align 4
  %106 = add i32 %104, %105
  %107 = zext i32 %106 to i64
  %108 = getelementptr inbounds float, ptr %103, i64 %107
  %109 = load float, ptr %108, align 4
  store float %109, ptr %8, align 4
  %110 = load ptr, ptr %14, align 8
  %111 = load i32, ptr %12, align 4
  %112 = load i32, ptr %13, align 4
  %113 = add i32 %111, %112
  %114 = zext i32 %113 to i64
  %115 = getelementptr inbounds float, ptr %110, i64 %114
  %116 = load float, ptr %115, align 4
  store float %116, ptr %7, align 4
  %117 = load float, ptr %8, align 4
  %118 = load float, ptr %7, align 4
  %119 = load float, ptr %8, align 4
  %120 = fsub float %118, %119
  %121 = load float, ptr %10, align 4
  %122 = call float @llvm.fmuladd.f32(float %120, float %121, float %117)
  %123 = load ptr, ptr %5, align 8
  %124 = load i32, ptr %13, align 4
  %125 = zext i32 %124 to i64
  %126 = getelementptr inbounds float, ptr %123, i64 %125
  store float %122, ptr %126, align 4
  br label %127

127:                                              ; preds = %102
  %128 = load i32, ptr %13, align 4
  %129 = add i32 %128, 1
  store i32 %129, ptr %13, align 4
  br label %96, !llvm.loop !11

130:                                              ; preds = %96
  br label %131

131:                                              ; preds = %130, %63
  ret void
}