; Function Attrs: nofree norecurse nosync nounwind memory(read, argmem: readwrite, inaccessiblemem: none) uwtable
define internal void @Eval1InputFloat(ptr nocapture noundef readonly %0, ptr nocapture noundef writeonly %1, ptr nocapture noundef readonly %2) #4 {
  %4 = getelementptr inbounds i8, ptr %2, i64 200
  %5 = load ptr, ptr %4, align 8
  %6 = load float, ptr %0, align 4
  %7 = fcmp olt float %6, 0x3E112E0BE0000000
  %8 = fcmp uno float %6, 0.000000e+00
  %or.cond.i = or i1 %7, %8
  %9 = fcmp ogt float %6, 1.000000e+00
  %10 = select i1 %9, float 1.000000e+00, float %6
  %11 = select i1 %or.cond.i, float 0.000000e+00, float %10
  %12 = fcmp oeq float %11, 1.000000e+00
  %.phi.trans.insert = getelementptr inbounds i8, ptr %2, i64 80
  %.pre = load i32, ptr %.phi.trans.insert, align 8
  br i1 %12, label %._crit_edge, label %13

13:                                               ; preds = %3
  %14 = icmp eq i32 %.pre, 0
  br i1 %14, label %._crit_edge, label %30

._crit_edge:                                      ; preds = %3, %13
  %15 = phi i32 [ 0, %13 ], [ %.pre, %3 ]
  %16 = getelementptr inbounds i8, ptr %2, i64 140
  %17 = load i32, ptr %16, align 4
  %18 = mul i32 %17, %15
  %19 = getelementptr inbounds i8, ptr %2, i64 16
  %20 = load i32, ptr %19, align 8
  %.not43 = icmp eq i32 %20, 0
  br i1 %.not43, label %.loopexit, label %.lr.ph42

.lr.ph42:                                         ; preds = %._crit_edge, %.lr.ph42
  %indvars.iv46 = phi i64 [ %indvars.iv.next47, %.lr.ph42 ], [ 0, %._crit_edge ]
  %21 = trunc nuw i64 %indvars.iv46 to i32
  %22 = add i32 %18, %21
  %23 = zext i32 %22 to i64
  %24 = getelementptr inbounds float, ptr %5, i64 %23
  %25 = load float, ptr %24, align 4
  %26 = getelementptr inbounds float, ptr %1, i64 %indvars.iv46
  store float %25, ptr %26, align 4
  %indvars.iv.next47 = add nuw nsw i64 %indvars.iv46, 1
  %27 = load i32, ptr %19, align 8
  %28 = zext i32 %27 to i64
  %29 = icmp ult i64 %indvars.iv.next47, %28
  br i1 %29, label %.lr.ph42, label %.loopexit, !llvm.loop !10

30:                                               ; preds = %13
  %31 = uitofp i32 %.pre to float
  %32 = fmul float %11, %31
  %33 = fpext float %32 to double
  %34 = tail call double @llvm.floor.f64(double %33)
  %35 = fptosi double %34 to i32
  %36 = tail call double @llvm.ceil.f64(double %33)
  %37 = fptosi double %36 to i32
  %38 = sitofp i32 %35 to float
  %39 = fsub float %32, %38
  %40 = getelementptr inbounds i8, ptr %2, i64 140
  %41 = load i32, ptr %40, align 4
  %42 = mul i32 %41, %35
  %43 = mul i32 %41, %37
  %44 = getelementptr inbounds i8, ptr %2, i64 16
  %45 = load i32, ptr %44, align 8
  %.not = icmp eq i32 %45, 0
  br i1 %.not, label %.loopexit, label %.lr.ph

.lr.ph:                                           ; preds = %30, %.lr.ph
  %indvars.iv = phi i64 [ %indvars.iv.next, %.lr.ph ], [ 0, %30 ]
  %46 = trunc nuw i64 %indvars.iv to i32
  %47 = add i32 %42, %46
  %48 = zext i32 %47 to i64
  %49 = getelementptr inbounds float, ptr %5, i64 %48
  %50 = load float, ptr %49, align 4
  %51 = add i32 %43, %46
  %52 = zext i32 %51 to i64
  %53 = getelementptr inbounds float, ptr %5, i64 %52
  %54 = load float, ptr %53, align 4
  %55 = fsub float %54, %50
  %56 = tail call float @llvm.fmuladd.f32(float %55, float %39, float %50)
  %57 = getelementptr inbounds float, ptr %1, i64 %indvars.iv
  store float %56, ptr %57, align 4
  %indvars.iv.next = add nuw nsw i64 %indvars.iv, 1
  %58 = load i32, ptr %44, align 8
  %59 = zext i32 %58 to i64
  %60 = icmp ult i64 %indvars.iv.next, %59
  br i1 %60, label %.lr.ph, label %.loopexit, !llvm.loop !11

.loopexit:                                        ; preds = %.lr.ph, %.lr.ph42, %30, %._crit_edge
  ret void
}